target datalayout = "e-m:e-p270:32:32-p271:32:32-p272:64:64-i64:64-i128:128-f80:128-n8:16:32:64-S128"
target triple = "x86_64-pc-linux-gnu"

%"class.OpenImageIO::v3_1_0::ustringhash" = type { i64 }

@_ZN11OpenImageIO6v3_1_012_GLOBAL__N_114wrap_type_hashE = internal global [8 x %"class.OpenImageIO::v3_1_0::ustringhash"] zeroinitializer, align 16

; Function Attrs: mustprogress nounwind uwtable
define linkonce_odr noundef zeroext i1 @_ZNK11OpenImageIO6v3_1_011ustringhasheqERKS1_(ptr noundef nonnull align 8 dereferenceable(8) %0, ptr noundef nonnull align 8 dereferenceable(8) %1) #5 comdat align 2 {
  %3 = alloca ptr, align 8
  %4 = alloca ptr, align 8
  store ptr %0, ptr %3, align 8, !tbaa !12
  store ptr %1, ptr %4, align 8, !tbaa !12
  %5 = load ptr, ptr %3, align 8
  %6 = getelementptr inbounds nuw %"class.OpenImageIO::v3_1_0::ustringhash", ptr %5, i32 0, i32 0
  %7 = load i64, ptr %6, align 8, !tbaa !14
  %8 = load ptr, ptr %4, align 8, !tbaa !12
  %9 = getelementptr inbounds nuw %"class.OpenImageIO::v3_1_0::ustringhash", ptr %8, i32 0, i32 0
  %10 = load i64, ptr %9, align 8, !tbaa !14
  %11 = icmp eq i64 %7, %10
  ret i1 %11
}

; Function Attrs: mustprogress nounwind uwtable
define noundef zeroext i8 @_ZN11OpenImageIO6v3_1_03Tex15decode_wrapmodeENS0_11ustringhashE(i64 %0) #5 {
  %2 = alloca i8, align 1
  %3 = alloca %"class.OpenImageIO::v3_1_0::ustringhash", align 8
  %4 = alloca i32, align 4
  %5 = alloca i32, align 4
  %6 = getelementptr inbounds nuw %"class.OpenImageIO::v3_1_0::ustringhash", ptr %3, i32 0, i32 0
  store i64 %0, ptr %6, align 8
  call void @llvm.lifetime.start.p0(i64 4, ptr %4) #3
  store i32 0, ptr %4, align 4, !tbaa !17
  br label %7

7:                                                ; preds = %20, %1
  %8 = load i32, ptr %4, align 4, !tbaa !17
  %9 = icmp slt i32 %8, 7
  br i1 %9, label %11, label %10

10:                                               ; preds = %7
  store i32 2, ptr %5, align 4
  br label %23

11:                                               ; preds = %7
  %12 = load i32, ptr %4, align 4, !tbaa !17
  %13 = sext i32 %12 to i64
  %14 = getelementptr inbounds [8 x %"class.OpenImageIO::v3_1_0::ustringhash"], ptr @_ZN11OpenImageIO6v3_1_012_GLOBAL__N_114wrap_type_hashE, i64 0, i64 %13
  %15 = call noundef zeroext i1 @_ZNK11OpenImageIO6v3_1_011ustringhasheqERKS1_(ptr noundef nonnull align 8 dereferenceable(8) %3, ptr noundef nonnull align 8 dereferenceable(8) %14) #3
  br i1 %15, label %16, label %19

16:                                               ; preds = %11
  %17 = load i32, ptr %4, align 4, !tbaa !17
  %18 = trunc i32 %17 to i8
  store i8 %18, ptr %2, align 1
  store i32 1, ptr %5, align 4
  br label %23

19:                                               ; preds = %11
  br label %20

20:                                               ; preds = %19
  %21 = load i32, ptr %4, align 4, !tbaa !17
  %22 = add nsw i32 %21, 1
  store i32 %22, ptr %4, align 4, !tbaa !17
  br label %7, !llvm.loop !22

23:                                               ; preds = %16, %10
  call void @llvm.lifetime.end.p0(i64 4, ptr %4) #3
  %24 = load i32, ptr %5, align 4
  switch i32 %24, label %28 [
    i32 2, label %25
    i32 1, label %26
  ]

25:                                               ; preds = %23
  store i8 0, ptr %2, align 1
  br label %26

26:                                               ; preds = %25, %23
  %27 = load i8, ptr %2, align 1
  ret i8 %27

28:                                               ; preds = %23
  unreachable
}