; Function Attrs: mustprogress nofree norecurse nosync nounwind willreturn memory(read, argmem: none, inaccessiblemem: none) uwtable
define noundef zeroext i8 @_ZN11OpenImageIO6v3_1_03Tex15decode_wrapmodeENS0_11ustringhashE(i64 %0) local_unnamed_addr #6 {
  br label %2

2:                                                ; preds = %1, %8
  %indvars.iv = phi i64 [ 0, %1 ], [ %indvars.iv.next, %8 ]
  %3 = getelementptr inbounds nuw [8 x %"class.OpenImageIO::v3_1_0::ustringhash"], ptr @_ZN11OpenImageIO6v3_1_012_GLOBAL__N_114wrap_type_hashE, i64 0, i64 %indvars.iv
  %4 = load i64, ptr %3, align 8, !tbaa !12
  %5 = icmp eq i64 %0, %4
  br i1 %5, label %6, label %8

6:                                                ; preds = %2
  %7 = trunc i64 %indvars.iv to i8
  br label %.loopexit

8:                                                ; preds = %2
  %indvars.iv.next = add nuw nsw i64 %indvars.iv, 1
  %exitcond = icmp eq i64 %indvars.iv.next, 7
  br i1 %exitcond, label %.loopexit, label %2, !llvm.loop !15

.loopexit:                                        ; preds = %8, %6
  %spec.select = phi i8 [ %7, %6 ], [ 0, %8 ]
  ret i8 %spec.select
}